target datalayout = "e-m:e-p270:32:32-p271:32:32-p272:64:64-i64:64-i128:128-f80:128-n8:16:32:64-S128"
target triple = "x86_64-pc-linux-gnu"

%"struct.OpenImageIO::v3_1_0::ROI" = type { i32, i32, i32, i32, i32, i32, i32, i32 }
%"class.OpenImageIO::v3_1_0::ImageBuf" = type { %"class.std::unique_ptr.60" }
%"class.std::unique_ptr.60" = type { %"struct.std::__uniq_ptr_data.61" }
%"struct.std::__uniq_ptr_data.61" = type { %"class.std::__uniq_ptr_impl.62" }
%"class.std::__uniq_ptr_impl.62" = type { %"class.std::tuple.63" }
%"class.std::tuple.63" = type { %"struct.std::_Tuple_impl.64" }
%"struct.std::_Tuple_impl.64" = type { %"struct.std::_Tuple_impl.65", %"struct.std::_Head_base.67" }
%"struct.std::_Tuple_impl.65" = type { %"struct.std::_Head_base.66" }
%"struct.std::_Head_base.66" = type { ptr }
%"struct.std::_Head_base.67" = type { ptr }

@.str.73 = private unnamed_addr constant [35 x i8] c"ImageBufAlgo::colorconvert() error\00", align 1

; Function Attrs: mustprogress uwtable
define void @_ZN11OpenImageIO6v3_1_012ImageBufAlgo12colorconvertERKNS0_8ImageBufEPKNS0_14ColorProcessorEbNS0_3ROIEi(ptr dead_on_unwind noalias writable sret(%"class.OpenImageIO::v3_1_0::ImageBuf") align 8 %0, ptr noundef nonnull align 8 dereferenceable(16) %1, ptr noundef %2, i1 noundef zeroext %3, ptr noundef byval(%"struct.OpenImageIO::v3_1_0::ROI") align 8 %4, i32 noundef %5) #7 personality ptr @__gxx_personality_v0 {
  %7 = alloca ptr, align 8
  %8 = alloca ptr, align 8
  %9 = alloca ptr, align 8
  %10 = alloca i8, align 1
  %11 = alloca i32, align 4
  %12 = alloca i1, align 1
  %13 = alloca i8, align 1
  %14 = alloca %"struct.OpenImageIO::v3_1_0::ROI", align 8
  %15 = alloca ptr, align 8
  %16 = alloca i32, align 4
  store ptr %0, ptr %7, align 8
  store ptr %1, ptr %8, align 8, !tbaa !317
  store ptr %2, ptr %9, align 8, !tbaa !320
  %17 = zext i1 %3 to i8
  store i8 %17, ptr %10, align 1, !tbaa !8
  store i32 %5, ptr %11, align 4, !tbaa !18
  store i1 false, ptr %12, align 1
  call void @_ZN11OpenImageIO6v3_1_08ImageBufC1Ev(ptr noundef nonnull align 8 dereferenceable(16) %0)
  call void @llvm.lifetime.start.p0(i64 1, ptr %13) #5
  %18 = load ptr, ptr %8, align 8, !tbaa !317
  %19 = load ptr, ptr %9, align 8, !tbaa !320
  %20 = load i8, ptr %10, align 1, !tbaa !8, !range !23, !noundef !24
  %21 = trunc i8 %20 to i1
  call void @llvm.memcpy.p0.p0.i64(ptr align 4 %14, ptr align 8 %4, i64 32, i1 false), !tbaa.struct !319
  %22 = load i32, ptr %11, align 4, !tbaa !18
  %23 = invoke noundef zeroext i1 @_ZN11OpenImageIO6v3_1_012ImageBufAlgo12colorconvertERNS0_8ImageBufERKS2_PKNS0_14ColorProcessorEbNS0_3ROIEi(ptr noundef nonnull align 8 dereferenceable(16) %0, ptr noundef nonnull align 8 dereferenceable(16) %18, ptr noundef %19, i1 noundef zeroext %21, ptr noundef byval(%"struct.OpenImageIO::v3_1_0::ROI") align 8 %14, i32 noundef %22)
          to label %24 unwind label %33

24:                                               ; preds = %6
  %25 = zext i1 %23 to i8
  store i8 %25, ptr %13, align 1, !tbaa !8
  %26 = load i8, ptr %13, align 1, !tbaa !8, !range !23, !noundef !24
  %27 = trunc i8 %26 to i1
  br i1 %27, label %37, label %28

28:                                               ; preds = %24
  %29 = invoke noundef zeroext i1 @_ZNK11OpenImageIO6v3_1_08ImageBuf9has_errorEv(ptr noundef nonnull align 8 dereferenceable(16) %0)
          to label %30 unwind label %33

30:                                               ; preds = %28
  br i1 %29, label %37, label %31

31:                                               ; preds = %30
  invoke void @_ZNK11OpenImageIO6v3_1_08ImageBuf8errorfmtIA35_cJEEEvRKT_DpOT0_(ptr noundef nonnull align 8 dereferenceable(16) %0, ptr noundef nonnull align 1 dereferenceable(35) @.str.73)
          to label %32 unwind label %33

32:                                               ; preds = %31
  br label %37

33:                                               ; preds = %31, %28, %6
  %34 = landingpad { ptr, i32 }
          cleanup
  %35 = extractvalue { ptr, i32 } %34, 0
  store ptr %35, ptr %15, align 8
  %36 = extractvalue { ptr, i32 } %34, 1
  store i32 %36, ptr %16, align 4
  call void @llvm.lifetime.end.p0(i64 1, ptr %13) #5
  call void @_ZN11OpenImageIO6v3_1_08ImageBufD1Ev(ptr noundef nonnull align 8 dereferenceable(16) %0) #5
  br label %41

37:                                               ; preds = %32, %30, %24
  store i1 true, ptr %12, align 1
  call void @llvm.lifetime.end.p0(i64 1, ptr %13) #5
  %38 = load i1, ptr %12, align 1
  br i1 %38, label %40, label %39

39:                                               ; preds = %37
  call void @_ZN11OpenImageIO6v3_1_08ImageBufD1Ev(ptr noundef nonnull align 8 dereferenceable(16) %0) #5
  br label %40

40:                                               ; preds = %39, %37
  ret void

41:                                               ; preds = %33
  %42 = load ptr, ptr %15, align 8
  %43 = load i32, ptr %16, align 4
  %44 = insertvalue { ptr, i32 } poison, ptr %42, 0
  %45 = insertvalue { ptr, i32 } %44, i32 %43, 1
  resume { ptr, i32 } %45
}